target datalayout = "e-m:e-p270:32:32-p271:32:32-p272:64:64-i64:64-i128:128-f80:128-n8:16:32:64-S128"
target triple = "x86_64-pc-linux-gnu"

@.str.18 = private unnamed_addr constant [5 x i8] c"TERM\00", align 1
@stdout = external global ptr, align 8

; Function Attrs: mustprogress nounwind uwtable
define hidden noundef zeroext i1 @_ZN9benchmark15IsColorTerminalEv() #8 {
  %1 = alloca [16 x ptr], align 16
  %2 = alloca ptr, align 8
  %3 = alloca i8, align 1
  %4 = alloca ptr, align 8
  %5 = alloca ptr, align 8
  %6 = alloca ptr, align 8
  %7 = alloca i32, align 4
  %8 = alloca ptr, align 8
  call void @llvm.lifetime.start.p0(i64 128, ptr %1) #3
  call void @llvm.memcpy.p0.p0.i64(ptr align 16 %1, ptr align 16 @__const._ZN9benchmark15IsColorTerminalEv.SUPPORTED_TERM_VALUES, i64 128, i1 false)
  call void @llvm.lifetime.start.p0(i64 8, ptr %2) #3
  %9 = call ptr @getenv(ptr noundef @.str.18) #3
  store ptr %9, ptr %2, align 8, !tbaa !3
  call void @llvm.lifetime.start.p0(i64 1, ptr %3) #3
  store i8 0, ptr %3, align 1, !tbaa !29
  call void @llvm.lifetime.start.p0(i64 8, ptr %4) #3
  store ptr %1, ptr %4, align 8, !tbaa !21
  call void @llvm.lifetime.start.p0(i64 8, ptr %5) #3
  %10 = load ptr, ptr %4, align 8, !tbaa !21
  %11 = getelementptr inbounds [16 x ptr], ptr %10, i64 0, i64 0
  store ptr %11, ptr %5, align 8, !tbaa !21
  call void @llvm.lifetime.start.p0(i64 8, ptr %6) #3
  %12 = load ptr, ptr %4, align 8, !tbaa !21
  %13 = getelementptr inbounds [16 x ptr], ptr %12, i64 0, i64 0
  %14 = getelementptr inbounds ptr, ptr %13, i64 16
  store ptr %14, ptr %6, align 8, !tbaa !21
  br label %15

15:                                               ; preds = %35, %0
  %16 = load ptr, ptr %5, align 8, !tbaa !21
  %17 = load ptr, ptr %6, align 8, !tbaa !21
  %18 = icmp ne ptr %16, %17
  br i1 %18, label %20, label %19

19:                                               ; preds = %15
  store i32 2, ptr %7, align 4
  br label %38

20:                                               ; preds = %15
  call void @llvm.lifetime.start.p0(i64 8, ptr %8) #3
  %21 = load ptr, ptr %5, align 8, !tbaa !21
  %22 = load ptr, ptr %21, align 8, !tbaa !3
  store ptr %22, ptr %8, align 8, !tbaa !3
  %23 = load ptr, ptr %2, align 8, !tbaa !3
  %24 = icmp ne ptr %23, null
  br i1 %24, label %25, label %31

25:                                               ; preds = %20
  %26 = load ptr, ptr %2, align 8, !tbaa !3
  %27 = load ptr, ptr %8, align 8, !tbaa !3
  %28 = call i32 @strcmp(ptr noundef %26, ptr noundef %27) #20
  %29 = icmp eq i32 0, %28
  br i1 %29, label %30, label %31

30:                                               ; preds = %25
  store i8 1, ptr %3, align 1, !tbaa !29
  store i32 2, ptr %7, align 4
  br label %32

31:                                               ; preds = %25, %20
  store i32 0, ptr %7, align 4
  br label %32

32:                                               ; preds = %31, %30
  call void @llvm.lifetime.end.p0(i64 8, ptr %8) #3
  %33 = load i32, ptr %7, align 4
  switch i32 %33, label %38 [
    i32 0, label %34
  ]

34:                                               ; preds = %32
  br label %35

35:                                               ; preds = %34
  %36 = load ptr, ptr %5, align 8, !tbaa !21
  %37 = getelementptr inbounds nuw ptr, ptr %36, i32 1
  store ptr %37, ptr %5, align 8, !tbaa !21
  br label %15

38:                                               ; preds = %32, %19
  call void @llvm.lifetime.end.p0(i64 8, ptr %6) #3
  call void @llvm.lifetime.end.p0(i64 8, ptr %5) #3
  call void @llvm.lifetime.end.p0(i64 8, ptr %4) #3
  br label %39

39:                                               ; preds = %38
  %40 = load ptr, ptr @stdout, align 8, !tbaa !31
  %41 = call i32 @fileno(ptr noundef %40) #3
  %42 = call i32 @isatty(i32 noundef %41) #3
  %43 = icmp ne i32 0, %42
  br i1 %43, label %44, label %47

44:                                               ; preds = %39
  %45 = load i8, ptr %3, align 1, !tbaa !29, !range !33, !noundef !34
  %46 = trunc i8 %45 to i1
  br label %47

47:                                               ; preds = %44, %39
  %48 = phi i1 [ false, %39 ], [ %46, %44 ]
  store i32 1, ptr %7, align 4
  call void @llvm.lifetime.end.p0(i64 1, ptr %3) #3
  call void @llvm.lifetime.end.p0(i64 8, ptr %2) #3
  call void @llvm.lifetime.end.p0(i64 128, ptr %1) #3
  ret i1 %48
}